target datalayout = "e-m:e-p270:32:32-p271:32:32-p272:64:64-i64:64-i128:128-f80:128-n8:16:32:64-S128"
target triple = "x86_64-pc-linux-gnu"

@.str = private unnamed_addr constant [121 x i8] c"generated/home/dtcxzyw/WorkSpace/Projects/compilers/llvm-opt-benchmark/bench/open3d/Open3D/cpp/open3d/core/ShapeUtil.cpp\00", align 1
@__PRETTY_FUNCTION__._ZN6open3d4core10shape_util7WrapDimEllb = private unnamed_addr constant [66 x i8] c"int64_t open3d::core::shape_util::WrapDim(int64_t, int64_t, bool)\00", align 1
@.str.51 = private unnamed_addr constant [24 x i8] c"max_dim {} must be > 0.\00", align 1
@.str.52 = private unnamed_addr constant [68 x i8] c"Index out-of-range: dim == {}, but it must satisfy {} <= dim <= {}.\00", align 1

; Function Attrs: mustprogress ssp uwtable
define noundef i64 @_ZN6open3d4core10shape_util7WrapDimEllb(i64 noundef %0, i64 noundef %1, i1 noundef zeroext %2) #0 {
  %4 = alloca i64, align 8
  %5 = alloca i64, align 8
  %6 = alloca i8, align 1
  %7 = alloca i64, align 8
  %8 = alloca i64, align 8
  store i64 %0, ptr %4, align 8, !tbaa !9
  store i64 %1, ptr %5, align 8, !tbaa !9
  %9 = zext i1 %2 to i8
  store i8 %9, ptr %6, align 1, !tbaa !65
  %10 = load i64, ptr %5, align 8, !tbaa !9
  %11 = icmp sle i64 %10, 0
  br i1 %11, label %12, label %13

12:                                               ; preds = %3
  call void @_ZN6open3d7utility6Logger9LogError_IJRlEEEvPKciS5_S5_DpOT_(ptr noundef @.str, i32 noundef 133, ptr noundef @__PRETTY_FUNCTION__._ZN6open3d4core10shape_util7WrapDimEllb, ptr noundef @.str.51, ptr noundef nonnull align 8 dereferenceable(8) %5) #26
  unreachable

13:                                               ; preds = %3
  call void @llvm.lifetime.start.p0(i64 8, ptr %7) #25
  %14 = load i64, ptr %5, align 8, !tbaa !9
  %15 = sub nsw i64 0, %14
  store i64 %15, ptr %7, align 8, !tbaa !9
  call void @llvm.lifetime.start.p0(i64 8, ptr %8) #25
  %16 = load i8, ptr %6, align 1, !tbaa !65, !range !67, !noundef !68
  %17 = trunc i8 %16 to i1
  br i1 %17, label %18, label %20

18:                                               ; preds = %13
  %19 = load i64, ptr %5, align 8, !tbaa !9
  br label %23

20:                                               ; preds = %13
  %21 = load i64, ptr %5, align 8, !tbaa !9
  %22 = sub nsw i64 %21, 1
  br label %23

23:                                               ; preds = %20, %18
  %24 = phi i64 [ %19, %18 ], [ %22, %20 ]
  store i64 %24, ptr %8, align 8, !tbaa !9
  %25 = load i64, ptr %4, align 8, !tbaa !9
  %26 = load i64, ptr %7, align 8, !tbaa !9
  %27 = icmp slt i64 %25, %26
  br i1 %27, label %32, label %28

28:                                               ; preds = %23
  %29 = load i64, ptr %4, align 8, !tbaa !9
  %30 = load i64, ptr %8, align 8, !tbaa !9
  %31 = icmp sgt i64 %29, %30
  br i1 %31, label %32, label %33

32:                                               ; preds = %28, %23
  call void @_ZN6open3d7utility6Logger9LogError_IJRlS3_S3_EEEvPKciS5_S5_DpOT_(ptr noundef @.str, i32 noundef 142, ptr noundef @__PRETTY_FUNCTION__._ZN6open3d4core10shape_util7WrapDimEllb, ptr noundef @.str.52, ptr noundef nonnull align 8 dereferenceable(8) %4, ptr noundef nonnull align 8 dereferenceable(8) %7, ptr noundef nonnull align 8 dereferenceable(8) %8) #26
  unreachable

33:                                               ; preds = %28
  %34 = load i64, ptr %4, align 8, !tbaa !9
  %35 = icmp slt i64 %34, 0
  br i1 %35, label %36, label %40

36:                                               ; preds = %33
  %37 = load i64, ptr %5, align 8, !tbaa !9
  %38 = load i64, ptr %4, align 8, !tbaa !9
  %39 = add nsw i64 %38, %37
  store i64 %39, ptr %4, align 8, !tbaa !9
  br label %40

40:                                               ; preds = %36, %33
  %41 = load i64, ptr %4, align 8, !tbaa !9
  call void @llvm.lifetime.end.p0(i64 8, ptr %8) #25
  call void @llvm.lifetime.end.p0(i64 8, ptr %7) #25
  ret i64 %41
}