; Function Attrs: mustprogress ssp uwtable
define noundef range(i64 -9223372036854775806, -9223372036854775808) i64 @_ZN6open3d4core10shape_util7WrapDimEllb(i64 noundef %0, i64 noundef %1, i1 noundef zeroext %2) local_unnamed_addr #2 {
  %4 = alloca i64, align 8
  %5 = alloca i64, align 8
  %6 = alloca i64, align 8
  %7 = alloca i64, align 8
  store i64 %0, ptr %4, align 8, !tbaa !11
  store i64 %1, ptr %5, align 8, !tbaa !11
  %8 = icmp slt i64 %1, 1
  br i1 %8, label %9, label %10

9:                                                ; preds = %3
  call void @_ZN6open3d7utility6Logger9LogError_IJRlEEEvPKciS5_S5_DpOT_(ptr noundef nonnull @.str, i32 noundef 133, ptr noundef nonnull @__PRETTY_FUNCTION__._ZN6open3d4core10shape_util7WrapDimEllb, ptr noundef nonnull @.str.51, ptr noundef nonnull align 8 dereferenceable(8) %5) #29
  unreachable

10:                                               ; preds = %3
  call void @llvm.lifetime.start.p0(i64 8, ptr nonnull %6) #30
  %11 = sub nsw i64 0, %1
  store i64 %11, ptr %6, align 8, !tbaa !11
  call void @llvm.lifetime.start.p0(i64 8, ptr nonnull %7) #30
  %not. = xor i1 %2, true
  %12 = sext i1 %not. to i64
  %13 = add nsw i64 %1, %12
  store i64 %13, ptr %7, align 8, !tbaa !11
  %14 = icmp slt i64 %0, %11
  %15 = icmp sgt i64 %0, %13
  %or.cond = select i1 %14, i1 true, i1 %15
  br i1 %or.cond, label %16, label %17

16:                                               ; preds = %10
  call void @_ZN6open3d7utility6Logger9LogError_IJRlS3_S3_EEEvPKciS5_S5_DpOT_(ptr noundef nonnull @.str, i32 noundef 142, ptr noundef nonnull @__PRETTY_FUNCTION__._ZN6open3d4core10shape_util7WrapDimEllb, ptr noundef nonnull @.str.52, ptr noundef nonnull align 8 dereferenceable(8) %4, ptr noundef nonnull align 8 dereferenceable(8) %6, ptr noundef nonnull align 8 dereferenceable(8) %7) #29
  unreachable

17:                                               ; preds = %10
  %18 = icmp slt i64 %0, 0
  %19 = select i1 %18, i64 %1, i64 0
  %spec.select = add nsw i64 %0, %19
  call void @llvm.lifetime.end.p0(i64 8, ptr nonnull %7) #30
  call void @llvm.lifetime.end.p0(i64 8, ptr nonnull %6) #30
  ret i64 %spec.select
}